(dp0
S'alex'
p1
(lp2
I29
aS'IT'
p3
asS'jack'
p4
I999
sS'Rain'
p5
(dp6
S'age'
p7
I24
sS'job'
p8
S'saleman'
p9
ss.(dp0
S'alex'
p1
S'Teacher'
p2
sS'jack'
p3
I999
sS'Rain'
p4
(dp5
S'age'
p6
I24
sS'job'
p7
S'saleman'
p8
ss.